; Function Attrs: null_pointer_is_valid sspstrong uwtable
define noalias noundef ptr @tvbparse_not_char(i32 noundef %0, ptr noundef %1, ptr noundef %2, ptr noundef %3, ptr noundef %4) local_unnamed_addr #0 {
  %6 = tail call ptr @wmem_epan_scope()
  %7 = tail call noalias dereferenceable_or_null(80) ptr @wmem_alloc0(ptr noundef %6, i64 noundef 80) #11
  %8 = getelementptr inbounds nuw i8, ptr %7, i64 8
  store ptr @cond_not_char, ptr %8, align 8
  store i32 %0, ptr %7, align 8
  %9 = getelementptr inbounds nuw i8, ptr %7, i64 16
  store ptr %1, ptr %9, align 8
  %10 = getelementptr inbounds nuw i8, ptr %7, i64 56
  store ptr %2, ptr %10, align 8
  %11 = getelementptr inbounds nuw i8, ptr %7, i64 64
  store ptr %3, ptr %11, align 8
  %12 = getelementptr inbounds nuw i8, ptr %7, i64 72
  store ptr %4, ptr %12, align 8
  ret ptr %7
}